; Function Attrs: mustprogress uwtable
define noundef i64 @_ZNK5arrow7compute15KernelSignature4HashEv(ptr nocapture noundef nonnull align 8 dereferenceable(96) %this) local_unnamed_addr #0 align 2 {
entry:
  %hash_code_ = getelementptr inbounds i8, ptr %this, i64 88
  %0 = load i64, ptr %hash_code_, align 8
  %cmp.not = icmp eq i64 %0, 0
  br i1 %cmp.not, label %if.end, label %return

if.end:                                           ; preds = %entry
  %1 = load ptr, ptr %this, align 8
  %_M_finish.i = getelementptr inbounds i8, ptr %this, i64 8
  %2 = load ptr, ptr %_M_finish.i, align 8
  %cmp.i.not5 = icmp eq ptr %1, %2
  br i1 %cmp.i.not5, label %for.end, label %for.body

for.body:                                         ; preds = %if.end, %_ZNK5arrow7compute9InputType4HashEv.exit
  %result.07 = phi i64 [ %xor.i.i, %_ZNK5arrow7compute9InputType4HashEv.exit ], [ 0, %if.end ]
  %__begin2.sroa.0.06 = phi ptr [ %incdec.ptr.i, %_ZNK5arrow7compute9InputType4HashEv.exit ], [ %1, %if.end ]
  %3 = load i32, ptr %__begin2.sroa.0.06, align 8
  %conv.i.i.i = sext i32 %3 to i64
  %add.i.i.i = add nsw i64 %conv.i.i.i, 2654435769
  %cond.i = icmp eq i32 %3, 1
  br i1 %cond.i, label %sw.bb.i, label %_ZNK5arrow7compute9InputType4HashEv.exit

sw.bb.i:                                          ; preds = %for.body
  %type_.i = getelementptr inbounds i8, ptr %__begin2.sroa.0.06, i64 8
  %4 = load ptr, ptr %type_.i, align 8
  %call4.i = tail call noundef i64 @_ZNK5arrow8DataType4HashEv(ptr noundef nonnull align 8 dereferenceable(72) %4)
  %add2.i.i5.i = add i64 %call4.i, 173201933991
  %xor.i.i6.i = xor i64 %add2.i.i5.i, %add.i.i.i
  br label %_ZNK5arrow7compute9InputType4HashEv.exit

_ZNK5arrow7compute9InputType4HashEv.exit:         ; preds = %for.body, %sw.bb.i
  %result.0.i = phi i64 [ %xor.i.i6.i, %sw.bb.i ], [ %add.i.i.i, %for.body ]
  %shl.i.i = shl i64 %result.07, 6
  %shr.i.i = lshr i64 %result.07, 2
  %add.i.i = add i64 %shl.i.i, 2654435769
  %add1.i.i = add i64 %add.i.i, %shr.i.i
  %add2.i.i = add i64 %add1.i.i, %result.0.i
  %xor.i.i = xor i64 %add2.i.i, %result.07
  %incdec.ptr.i = getelementptr inbounds i8, ptr %__begin2.sroa.0.06, i64 40
  %cmp.i.not = icmp eq ptr %incdec.ptr.i, %2
  br i1 %cmp.i.not, label %for.end, label %for.body

for.end:                                          ; preds = %_ZNK5arrow7compute9InputType4HashEv.exit, %if.end
  %result.0.lcssa = phi i64 [ 0, %if.end ], [ %xor.i.i, %_ZNK5arrow7compute9InputType4HashEv.exit ]
  store i64 %result.0.lcssa, ptr %hash_code_, align 8
  br label %return

return:                                           ; preds = %entry, %for.end
  %retval.0 = phi i64 [ %result.0.lcssa, %for.end ], [ %0, %entry ]
  ret i64 %retval.0
}